target datalayout = "e-m:e-p270:32:32-p271:32:32-p272:64:64-i64:64-i128:128-f80:128-n8:16:32:64-S128"
target triple = "x86_64-pc-linux-gnu"

%struct.H5O_copy_dtype_merge_list_t = type { ptr, ptr }

@H5_H5O_copy_dtype_merge_list_t_reg_free_list = global { i8, [3 x i8], i32, i32, [4 x i8], ptr, i64, ptr } { i8 0, [3 x i8] zeroinitializer, i32 0, i32 0, [4 x i8] zeroinitializer, ptr @.str.1, i64 16, ptr null }, align 8
@H5_libterm_g = external global i8, align 1
@.str.2 = private unnamed_addr constant [103 x i8] c"generated/home/dtcxzyw/WorkSpace/Projects/compilers/llvm-opt-benchmark/bench/hdf5/hdf5/src/H5Pocpypl.c\00", align 1
@H5P_init_g = external global i8, align 1
@H5E_PLIST_g = external global i64, align 8
@.str.15 = private unnamed_addr constant [25 x i8] c"memory allocation failed\00", align 1
@H5E_CANTALLOC_g = external global i64, align 8
@__func__.H5P__ocpy_merge_comm_dt_list_dec = private unnamed_addr constant [33 x i8] c"H5P__ocpy_merge_comm_dt_list_dec\00", align 1

; Function Attrs: nounwind uwtable
define internal ptr @H5P__free_merge_comm_dtype_list(ptr noundef %0) #0 {
  %2 = alloca ptr, align 8
  %3 = alloca ptr, align 8
  store ptr %0, ptr %2, align 8, !tbaa !22
  %4 = load i8, ptr @H5P_init_g, align 1, !tbaa !10, !range !12, !noundef !13
  %5 = trunc i8 %4 to i1
  br i1 %5, label %10, label %6

6:                                                ; preds = %1
  %7 = load i8, ptr @H5_libterm_g, align 1, !tbaa !10, !range !12, !noundef !13
  %8 = trunc i8 %7 to i1
  %9 = xor i1 %8, true
  br label %10

10:                                               ; preds = %6, %1
  %11 = phi i1 [ true, %1 ], [ %9, %6 ]
  %12 = xor i1 %11, true
  %13 = xor i1 %12, true
  %14 = zext i1 %13 to i32
  %15 = sext i32 %14 to i64
  %16 = call i64 @llvm.expect.i64(i64 %15, i64 1)
  %17 = icmp ne i64 %16, 0
  br i1 %17, label %18, label %34

18:                                               ; preds = %10
  br label %19

19:                                               ; preds = %22, %18
  %20 = load ptr, ptr %2, align 8, !tbaa !22
  %21 = icmp ne ptr %20, null
  br i1 %21, label %22, label %33

22:                                               ; preds = %19
  call void @llvm.lifetime.start.p0(i64 8, ptr %3) #7
  %23 = load ptr, ptr %2, align 8, !tbaa !22
  %24 = getelementptr inbounds nuw %struct.H5O_copy_dtype_merge_list_t, ptr %23, i32 0, i32 1
  %25 = load ptr, ptr %24, align 8, !tbaa !27
  store ptr %25, ptr %3, align 8, !tbaa !22
  %26 = load ptr, ptr %2, align 8, !tbaa !22
  %27 = getelementptr inbounds nuw %struct.H5O_copy_dtype_merge_list_t, ptr %26, i32 0, i32 0
  %28 = load ptr, ptr %27, align 8, !tbaa !25
  %29 = call ptr @H5MM_xfree(ptr noundef %28)
  %30 = load ptr, ptr %2, align 8, !tbaa !22
  %31 = call ptr @H5FL_reg_free(ptr noundef @H5_H5O_copy_dtype_merge_list_t_reg_free_list, ptr noundef %30)
  %32 = load ptr, ptr %3, align 8, !tbaa !22
  store ptr %32, ptr %2, align 8, !tbaa !22
  call void @llvm.lifetime.end.p0(i64 8, ptr %3) #7
  br label %19, !llvm.loop !28

33:                                               ; preds = %19
  br label %34

34:                                               ; preds = %33, %10
  ret ptr null
}

; Function Attrs: nounwind uwtable
define internal i32 @H5P__ocpy_merge_comm_dt_list_dec(ptr noundef %0, ptr noundef %1) #0 {
  %3 = alloca ptr, align 8
  %4 = alloca ptr, align 8
  %5 = alloca ptr, align 8
  %6 = alloca ptr, align 8
  %7 = alloca ptr, align 8
  %8 = alloca ptr, align 8
  %9 = alloca i64, align 8
  %10 = alloca i32, align 4
  %11 = alloca i8, align 1
  store ptr %0, ptr %3, align 8, !tbaa !30
  store ptr %1, ptr %4, align 8, !tbaa !30
  call void @llvm.lifetime.start.p0(i64 8, ptr %5) #7
  %12 = load ptr, ptr %4, align 8, !tbaa !30
  store ptr %12, ptr %5, align 8, !tbaa !36
  call void @llvm.lifetime.start.p0(i64 8, ptr %6) #7
  %13 = load ptr, ptr %3, align 8, !tbaa !30
  store ptr %13, ptr %6, align 8, !tbaa !38
  call void @llvm.lifetime.start.p0(i64 8, ptr %7) #7
  store ptr null, ptr %7, align 8, !tbaa !22
  call void @llvm.lifetime.start.p0(i64 8, ptr %8) #7
  store ptr null, ptr %8, align 8, !tbaa !22
  call void @llvm.lifetime.start.p0(i64 8, ptr %9) #7
  call void @llvm.lifetime.start.p0(i64 4, ptr %10) #7
  store i32 0, ptr %10, align 4, !tbaa !8
  call void @llvm.lifetime.start.p0(i64 1, ptr %11) #7
  store i8 0, ptr %11, align 1, !tbaa !10
  %14 = load i8, ptr @H5P_init_g, align 1, !tbaa !10, !range !12, !noundef !13
  %15 = trunc i8 %14 to i1
  br i1 %15, label %20, label %16

16:                                               ; preds = %2
  %17 = load i8, ptr @H5_libterm_g, align 1, !tbaa !10, !range !12, !noundef !13
  %18 = trunc i8 %17 to i1
  %19 = xor i1 %18, true
  br label %20

20:                                               ; preds = %16, %2
  %21 = phi i1 [ true, %2 ], [ %19, %16 ]
  %22 = xor i1 %21, true
  %23 = xor i1 %22, true
  %24 = zext i1 %23 to i32
  %25 = sext i32 %24 to i64
  %26 = call i64 @llvm.expect.i64(i64 %25, i64 1)
  %27 = icmp ne i64 %26, 0
  br i1 %27, label %28, label %130

28:                                               ; preds = %20
  %29 = load ptr, ptr %5, align 8, !tbaa !36
  store ptr null, ptr %29, align 8, !tbaa !22
  %30 = load ptr, ptr %6, align 8, !tbaa !38
  %31 = load ptr, ptr %30, align 8, !tbaa !20
  %32 = call i64 @strlen(ptr noundef %31) #8
  store i64 %32, ptr %9, align 8, !tbaa !14
  br label %33

33:                                               ; preds = %101, %28
  %34 = load i64, ptr %9, align 8, !tbaa !14
  %35 = icmp ugt i64 %34, 0
  br i1 %35, label %36, label %105

36:                                               ; preds = %33
  %37 = call noalias ptr @H5FL_reg_calloc(ptr noundef @H5_H5O_copy_dtype_merge_list_t_reg_free_list)
  store ptr %37, ptr %8, align 8, !tbaa !22
  %38 = icmp eq ptr null, %37
  br i1 %38, label %39, label %58

39:                                               ; preds = %36
  br label %40

40:                                               ; preds = %39
  br label %41

41:                                               ; preds = %40
  br label %42

42:                                               ; preds = %41
  %43 = load i64, ptr @H5E_PLIST_g, align 8, !tbaa !14
  %44 = load i64, ptr @H5E_CANTALLOC_g, align 8, !tbaa !14
  %45 = call i32 (ptr, ptr, i32, i64, i64, ptr, ...) @H5E_printf_stack(ptr noundef @.str.2, ptr noundef @__func__.H5P__ocpy_merge_comm_dt_list_dec, i32 noundef 421, i64 noundef %43, i64 noundef %44, ptr noundef @.str.15)
  br label %46

46:                                               ; preds = %42
  br label %47

47:                                               ; preds = %46
  store i8 1, ptr %11, align 1, !tbaa !10
  %48 = load i8, ptr %11, align 1, !tbaa !10, !range !12, !noundef !13
  %49 = trunc i8 %48 to i1
  %50 = zext i1 %49 to i8
  store i8 %50, ptr %11, align 1, !tbaa !10
  br label %51

51:                                               ; preds = %47
  br label %52

52:                                               ; preds = %51
  br label %53

53:                                               ; preds = %52
  store i32 -1, ptr %10, align 4, !tbaa !8
  br label %109

54:                                               ; No predecessors!
  br label %55

55:                                               ; preds = %54
  br label %56

56:                                               ; preds = %55
  br label %57

57:                                               ; preds = %56
  br label %58

58:                                               ; preds = %57, %36
  %59 = load ptr, ptr %6, align 8, !tbaa !38
  %60 = load ptr, ptr %59, align 8, !tbaa !20
  %61 = call noalias ptr @H5MM_strdup(ptr noundef %60)
  %62 = load ptr, ptr %8, align 8, !tbaa !22
  %63 = getelementptr inbounds nuw %struct.H5O_copy_dtype_merge_list_t, ptr %62, i32 0, i32 0
  store ptr %61, ptr %63, align 8, !tbaa !25
  %64 = icmp eq ptr null, %61
  br i1 %64, label %65, label %84

65:                                               ; preds = %58
  br label %66

66:                                               ; preds = %65
  br label %67

67:                                               ; preds = %66
  br label %68

68:                                               ; preds = %67
  %69 = load i64, ptr @H5E_PLIST_g, align 8, !tbaa !14
  %70 = load i64, ptr @H5E_CANTALLOC_g, align 8, !tbaa !14
  %71 = call i32 (ptr, ptr, i32, i64, i64, ptr, ...) @H5E_printf_stack(ptr noundef @.str.2, ptr noundef @__func__.H5P__ocpy_merge_comm_dt_list_dec, i32 noundef 423, i64 noundef %69, i64 noundef %70, ptr noundef @.str.15)
  br label %72

72:                                               ; preds = %68
  br label %73

73:                                               ; preds = %72
  store i8 1, ptr %11, align 1, !tbaa !10
  %74 = load i8, ptr %11, align 1, !tbaa !10, !range !12, !noundef !13
  %75 = trunc i8 %74 to i1
  %76 = zext i1 %75 to i8
  store i8 %76, ptr %11, align 1, !tbaa !10
  br label %77

77:                                               ; preds = %73
  br label %78

78:                                               ; preds = %77
  br label %79

79:                                               ; preds = %78
  store i32 -1, ptr %10, align 4, !tbaa !8
  br label %109

80:                                               ; No predecessors!
  br label %81

81:                                               ; preds = %80
  br label %82

82:                                               ; preds = %81
  br label %83

83:                                               ; preds = %82
  br label %84

84:                                               ; preds = %83, %58
  %85 = load i64, ptr %9, align 8, !tbaa !14
  %86 = add i64 %85, 1
  %87 = load ptr, ptr %6, align 8, !tbaa !38
  %88 = load ptr, ptr %87, align 8, !tbaa !20
  %89 = getelementptr inbounds nuw i8, ptr %88, i64 %86
  store ptr %89, ptr %87, align 8, !tbaa !20
  %90 = load ptr, ptr %7, align 8, !tbaa !22
  %91 = icmp ne ptr %90, null
  br i1 %91, label %92, label %97

92:                                               ; preds = %84
  %93 = load ptr, ptr %8, align 8, !tbaa !22
  %94 = load ptr, ptr %7, align 8, !tbaa !22
  %95 = getelementptr inbounds nuw %struct.H5O_copy_dtype_merge_list_t, ptr %94, i32 0, i32 1
  store ptr %93, ptr %95, align 8, !tbaa !27
  %96 = load ptr, ptr %8, align 8, !tbaa !22
  store ptr %96, ptr %7, align 8, !tbaa !22
  br label %101

97:                                               ; preds = %84
  %98 = load ptr, ptr %8, align 8, !tbaa !22
  %99 = load ptr, ptr %5, align 8, !tbaa !36
  store ptr %98, ptr %99, align 8, !tbaa !22
  %100 = load ptr, ptr %8, align 8, !tbaa !22
  store ptr %100, ptr %7, align 8, !tbaa !22
  br label %101

101:                                              ; preds = %97, %92
  store ptr null, ptr %8, align 8, !tbaa !22
  %102 = load ptr, ptr %6, align 8, !tbaa !38
  %103 = load ptr, ptr %102, align 8, !tbaa !20
  %104 = call i64 @strlen(ptr noundef %103) #8
  store i64 %104, ptr %9, align 8, !tbaa !14
  br label %33, !llvm.loop !41

105:                                              ; preds = %33
  %106 = load ptr, ptr %6, align 8, !tbaa !38
  %107 = load ptr, ptr %106, align 8, !tbaa !20
  %108 = getelementptr inbounds i8, ptr %107, i64 1
  store ptr %108, ptr %106, align 8, !tbaa !20
  br label %109

109:                                              ; preds = %105, %79, %53
  %110 = load i32, ptr %10, align 4, !tbaa !8
  %111 = icmp slt i32 %110, 0
  br i1 %111, label %112, label %129

112:                                              ; preds = %109
  %113 = load ptr, ptr %5, align 8, !tbaa !36
  %114 = load ptr, ptr %113, align 8, !tbaa !22
  %115 = call ptr @H5P__free_merge_comm_dtype_list(ptr noundef %114)
  %116 = load ptr, ptr %5, align 8, !tbaa !36
  store ptr %115, ptr %116, align 8, !tbaa !22
  %117 = load ptr, ptr %8, align 8, !tbaa !22
  %118 = icmp ne ptr %117, null
  br i1 %118, label %119, label %128

119:                                              ; preds = %112
  %120 = load ptr, ptr %8, align 8, !tbaa !22
  %121 = getelementptr inbounds nuw %struct.H5O_copy_dtype_merge_list_t, ptr %120, i32 0, i32 0
  %122 = load ptr, ptr %121, align 8, !tbaa !25
  %123 = call ptr @H5MM_xfree(ptr noundef %122)
  %124 = load ptr, ptr %8, align 8, !tbaa !22
  %125 = getelementptr inbounds nuw %struct.H5O_copy_dtype_merge_list_t, ptr %124, i32 0, i32 0
  store ptr %123, ptr %125, align 8, !tbaa !25
  %126 = load ptr, ptr %8, align 8, !tbaa !22
  %127 = call ptr @H5FL_reg_free(ptr noundef @H5_H5O_copy_dtype_merge_list_t_reg_free_list, ptr noundef %126)
  store ptr %127, ptr %8, align 8, !tbaa !22
  br label %128

128:                                              ; preds = %119, %112
  br label %129

129:                                              ; preds = %128, %109
  br label %130

130:                                              ; preds = %129, %20
  %131 = load i32, ptr %10, align 4, !tbaa !8
  call void @llvm.lifetime.end.p0(i64 1, ptr %11) #7
  call void @llvm.lifetime.end.p0(i64 4, ptr %10) #7
  call void @llvm.lifetime.end.p0(i64 8, ptr %9) #7
  call void @llvm.lifetime.end.p0(i64 8, ptr %8) #7
  call void @llvm.lifetime.end.p0(i64 8, ptr %7) #7
  call void @llvm.lifetime.end.p0(i64 8, ptr %6) #7
  call void @llvm.lifetime.end.p0(i64 8, ptr %5) #7
  ret i32 %131
}