; Function Attrs: nounwind uwtable
define internal range(i32 -1, 1) i32 @H5P__ocpy_merge_comm_dt_list_dec(ptr noundef captures(none) %0, ptr noundef captures(none) %1) #0 {
  %3 = load i8, ptr @H5P_init_g, align 1, !tbaa !3, !range !7, !noundef !8
  %4 = trunc nuw i8 %3 to i1
  %5 = load i8, ptr @H5_libterm_g, align 1, !range !7
  %6 = trunc nuw i8 %5 to i1
  %7 = xor i1 %6, true
  %8 = select i1 %4, i1 true, i1 %7
  br i1 %8, label %9, label %50, !prof !9

9:                                                ; preds = %2
  store ptr null, ptr %1, align 8, !tbaa !18
  %10 = load ptr, ptr %0, align 8, !tbaa !32
  %11 = tail call i64 @strlen(ptr noundef nonnull dereferenceable(1) %10) #9
  %.not.not38 = icmp eq i64 %11, 0
  br i1 %.not.not38, label %._crit_edge, label %.lr.ph

.lr.ph:                                           ; preds = %9, %25
  %.02740 = phi i64 [ %26, %25 ], [ %11, %9 ]
  %.03039 = phi ptr [ %12, %25 ], [ null, %9 ]
  %12 = tail call noalias ptr @H5FL_reg_calloc(ptr noundef nonnull @H5_H5O_copy_dtype_merge_list_t_reg_free_list) #8
  %13 = icmp eq ptr %12, null
  br i1 %13, label %29, label %14

14:                                               ; preds = %.lr.ph
  %15 = load ptr, ptr %0, align 8, !tbaa !32
  %16 = tail call noalias ptr @H5MM_strdup(ptr noundef %15) #8
  store ptr %16, ptr %12, align 8, !tbaa !23
  %17 = icmp eq ptr %16, null
  br i1 %17, label %29, label %18

18:                                               ; preds = %14
  %19 = load ptr, ptr %0, align 8, !tbaa !32
  %20 = getelementptr i8, ptr %19, i64 %.02740
  %21 = getelementptr i8, ptr %20, i64 1
  store ptr %21, ptr %0, align 8, !tbaa !32
  %.not34 = icmp eq ptr %.03039, null
  br i1 %.not34, label %24, label %22

22:                                               ; preds = %18
  %23 = getelementptr inbounds nuw i8, ptr %.03039, i64 8
  store ptr %12, ptr %23, align 8, !tbaa !26
  br label %25

24:                                               ; preds = %18
  store ptr %12, ptr %1, align 8, !tbaa !18
  br label %25

25:                                               ; preds = %24, %22
  %26 = tail call i64 @strlen(ptr noundef nonnull dereferenceable(1) %21) #9
  %.not.not = icmp eq i64 %26, 0
  br i1 %.not.not, label %._crit_edge, label %.lr.ph, !llvm.loop !37

._crit_edge:                                      ; preds = %25, %9
  %27 = phi ptr [ %10, %9 ], [ %21, %25 ]
  %28 = getelementptr inbounds nuw i8, ptr %27, i64 1
  store ptr %28, ptr %0, align 8, !tbaa !32
  br label %50

29:                                               ; preds = %14, %.lr.ph
  %.sink = phi i32 [ 421, %.lr.ph ], [ 423, %14 ]
  %30 = load i64, ptr @H5E_PLIST_g, align 8, !tbaa !10
  %31 = load i64, ptr @H5E_CANTALLOC_g, align 8, !tbaa !10
  %32 = tail call i32 (ptr, ptr, i32, i64, i64, ptr, ...) @H5E_printf_stack(ptr noundef nonnull @.str.2, ptr noundef nonnull @__func__.H5P__ocpy_merge_comm_dt_list_dec, i32 noundef %.sink, i64 noundef %30, i64 noundef %31, ptr noundef nonnull @.str.15) #8
  %33 = load ptr, ptr %1, align 8, !tbaa !18
  %34 = load i8, ptr @H5P_init_g, align 1, !tbaa !3, !range !7, !noundef !8
  %35 = trunc nuw i8 %34 to i1
  %36 = load i8, ptr @H5_libterm_g, align 1, !range !7
  %37 = trunc nuw i8 %36 to i1
  %38 = xor i1 %37, true
  %39 = select i1 %35, i1 true, i1 %38
  %40 = icmp ne ptr %33, null
  %or.cond.i = and i1 %40, %39
  br i1 %or.cond.i, label %.preheader.i, label %H5P__free_merge_comm_dtype_list.exit, !prof !27

.preheader.i:                                     ; preds = %29, %.preheader.i
  %.0.i = phi ptr [ %42, %.preheader.i ], [ %33, %29 ]
  %41 = getelementptr inbounds nuw i8, ptr %.0.i, i64 8
  %42 = load ptr, ptr %41, align 8, !tbaa !26
  %43 = load ptr, ptr %.0.i, align 8, !tbaa !23
  %44 = tail call ptr @H5MM_xfree(ptr noundef %43) #8
  %45 = tail call ptr @H5FL_reg_free(ptr noundef nonnull @H5_H5O_copy_dtype_merge_list_t_reg_free_list, ptr noundef nonnull %.0.i) #8
  %.old1.not.i = icmp eq ptr %42, null
  br i1 %.old1.not.i, label %H5P__free_merge_comm_dtype_list.exit, label %.preheader.i

H5P__free_merge_comm_dtype_list.exit:             ; preds = %.preheader.i, %29
  store ptr null, ptr %1, align 8, !tbaa !18
  %.not = icmp eq ptr %12, null
  br i1 %.not, label %50, label %46

46:                                               ; preds = %H5P__free_merge_comm_dtype_list.exit
  %47 = load ptr, ptr %12, align 8, !tbaa !23
  %48 = tail call ptr @H5MM_xfree(ptr noundef %47) #8
  store ptr %48, ptr %12, align 8, !tbaa !23
  %49 = tail call ptr @H5FL_reg_free(ptr noundef nonnull @H5_H5O_copy_dtype_merge_list_t_reg_free_list, ptr noundef nonnull %12) #8
  br label %50

50:                                               ; preds = %._crit_edge, %46, %H5P__free_merge_comm_dtype_list.exit, %2
  %.0 = phi i32 [ -1, %46 ], [ -1, %H5P__free_merge_comm_dtype_list.exit ], [ 0, %._crit_edge ], [ 0, %2 ]
  ret i32 %.0
}